target datalayout = "e-m:e-p270:32:32-p271:32:32-p272:64:64-i64:64-i128:128-f80:128-n8:16:32:64-S128"
target triple = "x86_64-pc-linux-gnu"

%struct.DdManager = type { %struct.DdNode, ptr, ptr, ptr, ptr, ptr, ptr, ptr, i32, i32, double, double, double, i32, i32, i32, i32, i32, i32, ptr, ptr, %struct.DdSubtable, i32, i32, i32, i32, i32, i32, i32, double, i32, i32, i32, ptr, i64, double, i32, ptr, ptr, ptr, ptr, ptr, ptr, ptr, i32, ptr, ptr, ptr, ptr, ptr, ptr, i32, i32, i32, double, i32, i32, i32, i32, double, double, i32, i32, i32, i32, i32, i32, i32, i32, i32, ptr, ptr, i32, i32, i32, i32, i32, i32, ptr, ptr, ptr, ptr, ptr, ptr, ptr, ptr, i32, i64, i64, i64, i32, i64, i64, double, double, double, double, double, double, i32, ptr, ptr, i64 }
%struct.DdNode = type { i32, i32, ptr, %union.anon, i64 }
%union.anon = type { %struct.DdChildren }
%struct.DdChildren = type { ptr, ptr }
%struct.DdSubtable = type { ptr, i32, i32, i32, i32, i32, i32, i32, i32, i32, i32, i32 }

; Function Attrs: nounwind uwtable
define ptr @Cudd_IndicesToCube(ptr noundef %0, ptr noundef %1, i32 noundef %2) #0 {
  %4 = alloca ptr, align 8
  %5 = alloca ptr, align 8
  %6 = alloca ptr, align 8
  %7 = alloca i32, align 4
  %8 = alloca ptr, align 8
  %9 = alloca ptr, align 8
  %10 = alloca i32, align 4
  store ptr %0, ptr %5, align 8
  store ptr %1, ptr %6, align 8
  store i32 %2, ptr %7, align 4
  %11 = load ptr, ptr %5, align 8
  %12 = getelementptr inbounds %struct.DdManager, ptr %11, i32 0, i32 1
  %13 = load ptr, ptr %12, align 8
  store ptr %13, ptr %8, align 8
  %14 = load ptr, ptr %8, align 8
  %15 = ptrtoint ptr %14 to i64
  %16 = and i64 %15, -2
  %17 = inttoptr i64 %16 to ptr
  %18 = getelementptr inbounds %struct.DdNode, ptr %17, i32 0, i32 1
  %19 = load i32, ptr %18, align 4
  %20 = add i32 %19, 1
  store i32 %20, ptr %18, align 4
  %21 = load i32, ptr %7, align 4
  %22 = sub nsw i32 %21, 1
  store i32 %22, ptr %10, align 4
  br label %23

23:                                               ; preds = %53, %3
  %24 = load i32, ptr %10, align 4
  %25 = icmp sge i32 %24, 0
  br i1 %25, label %26, label %56

26:                                               ; preds = %23
  %27 = load ptr, ptr %5, align 8
  %28 = load ptr, ptr %5, align 8
  %29 = load ptr, ptr %6, align 8
  %30 = load i32, ptr %10, align 4
  %31 = sext i32 %30 to i64
  %32 = getelementptr inbounds i32, ptr %29, i64 %31
  %33 = load i32, ptr %32, align 4
  %34 = call ptr @Cudd_bddIthVar(ptr noundef %28, i32 noundef %33)
  %35 = load ptr, ptr %8, align 8
  %36 = call ptr @Cudd_bddAnd(ptr noundef %27, ptr noundef %34, ptr noundef %35)
  store ptr %36, ptr %9, align 8
  %37 = load ptr, ptr %9, align 8
  %38 = icmp eq ptr %37, null
  br i1 %38, label %39, label %42

39:                                               ; preds = %26
  %40 = load ptr, ptr %5, align 8
  %41 = load ptr, ptr %8, align 8
  call void @Cudd_RecursiveDeref(ptr noundef %40, ptr noundef %41)
  store ptr null, ptr %4, align 8
  br label %65

42:                                               ; preds = %26
  %43 = load ptr, ptr %9, align 8
  %44 = ptrtoint ptr %43 to i64
  %45 = and i64 %44, -2
  %46 = inttoptr i64 %45 to ptr
  %47 = getelementptr inbounds %struct.DdNode, ptr %46, i32 0, i32 1
  %48 = load i32, ptr %47, align 4
  %49 = add i32 %48, 1
  store i32 %49, ptr %47, align 4
  %50 = load ptr, ptr %5, align 8
  %51 = load ptr, ptr %8, align 8
  call void @Cudd_RecursiveDeref(ptr noundef %50, ptr noundef %51)
  %52 = load ptr, ptr %9, align 8
  store ptr %52, ptr %8, align 8
  br label %53

53:                                               ; preds = %42
  %54 = load i32, ptr %10, align 4
  %55 = add nsw i32 %54, -1
  store i32 %55, ptr %10, align 4
  br label %23, !llvm.loop !72

56:                                               ; preds = %23
  %57 = load ptr, ptr %8, align 8
  %58 = ptrtoint ptr %57 to i64
  %59 = and i64 %58, -2
  %60 = inttoptr i64 %59 to ptr
  %61 = getelementptr inbounds %struct.DdNode, ptr %60, i32 0, i32 1
  %62 = load i32, ptr %61, align 4
  %63 = add i32 %62, -1
  store i32 %63, ptr %61, align 4
  %64 = load ptr, ptr %8, align 8
  store ptr %64, ptr %4, align 8
  br label %65

65:                                               ; preds = %56, %39
  %66 = load ptr, ptr %4, align 8
  ret ptr %66
}