; Function Attrs: nounwind uwtable
define ptr @Cudd_IndicesToCube(ptr noundef %0, ptr noundef readonly captures(none) %1, i32 noundef %2) local_unnamed_addr #0 {
  %4 = getelementptr inbounds nuw i8, ptr %0, i64 40
  %5 = load ptr, ptr %4, align 8
  %6 = ptrtoint ptr %5 to i64
  %7 = and i64 %6, -2
  %8 = inttoptr i64 %7 to ptr
  %9 = getelementptr inbounds nuw i8, ptr %8, i64 4
  %10 = load i32, ptr %9, align 4
  %11 = add i32 %10, 1
  store i32 %11, ptr %9, align 4
  %12 = icmp sgt i32 %2, 0
  br i1 %12, label %.lr.ph.preheader, label %._crit_edge

.lr.ph.preheader:                                 ; preds = %3
  %13 = zext nneg i32 %2 to i64
  br label %.lr.ph

.lr.ph:                                           ; preds = %.lr.ph.preheader, %20
  %indvars.iv = phi i64 [ %13, %.lr.ph.preheader ], [ %indvars.iv.next, %20 ]
  %.02024 = phi ptr [ %5, %.lr.ph.preheader ], [ %17, %20 ]
  %indvars.iv.next = add nsw i64 %indvars.iv, -1
  %14 = getelementptr inbounds nuw i32, ptr %1, i64 %indvars.iv.next
  %15 = load i32, ptr %14, align 4
  %16 = tail call ptr @Cudd_bddIthVar(ptr noundef %0, i32 noundef %15) #23
  %17 = tail call ptr @Cudd_bddAnd(ptr noundef %0, ptr noundef %16, ptr noundef %.02024) #23
  %18 = icmp eq ptr %17, null
  br i1 %18, label %19, label %20

19:                                               ; preds = %.lr.ph
  tail call void @Cudd_RecursiveDeref(ptr noundef %0, ptr noundef %.02024) #23
  br label %31

20:                                               ; preds = %.lr.ph
  %21 = ptrtoint ptr %17 to i64
  %22 = and i64 %21, -2
  %23 = inttoptr i64 %22 to ptr
  %24 = getelementptr inbounds nuw i8, ptr %23, i64 4
  %25 = load i32, ptr %24, align 4
  %26 = add i32 %25, 1
  store i32 %26, ptr %24, align 4
  tail call void @Cudd_RecursiveDeref(ptr noundef %0, ptr noundef %.02024) #23
  %27 = icmp samesign ugt i64 %indvars.iv, 1
  br i1 %27, label %.lr.ph, label %._crit_edge, !llvm.loop !63

._crit_edge:                                      ; preds = %20, %3
  %.pre-phi30 = phi ptr [ %8, %3 ], [ %23, %20 ]
  %.020.lcssa = phi ptr [ %5, %3 ], [ %17, %20 ]
  %28 = getelementptr inbounds nuw i8, ptr %.pre-phi30, i64 4
  %29 = load i32, ptr %28, align 4
  %30 = add i32 %29, -1
  store i32 %30, ptr %28, align 4
  br label %31

31:                                               ; preds = %._crit_edge, %19
  %.019 = phi ptr [ null, %19 ], [ %.020.lcssa, %._crit_edge ]
  ret ptr %.019
}